; Function Attrs: mustprogress nounwind uwtable
define hidden void @_ZN14GenerateOopMap20expand_current_instrEiiiPh(ptr noundef nonnull align 8 dereferenceable(176) %0, i32 noundef %1, i32 %2, i32 noundef %3, ptr noundef %4) local_unnamed_addr #0 align 2 {
  %6 = alloca %class.RelocCallback, align 8
  %7 = alloca %class.Relocator, align 8
  %8 = alloca %class.methodHandle, align 8
  %9 = tail call align 8 ptr @llvm.threadlocal.address.p0(ptr align 8 @_ZN6Thread12_thr_currentE)
  %10 = load ptr, ptr %9, align 8
  store ptr getelementptr inbounds inrange(-16, 8) (i8, ptr @_ZTV13RelocCallback, i64 16), ptr %6, align 8
  %11 = getelementptr inbounds i8, ptr %6, i64 8
  store ptr %0, ptr %11, align 8
  %12 = getelementptr inbounds i8, ptr %0, i64 8
  call void @_ZN9RelocatorC1ERK12methodHandleP17RelocatorListener(ptr noundef nonnull align 8 dereferenceable(72) %7, ptr noundef nonnull align 8 dereferenceable(16) %12, ptr noundef nonnull %6) #18
  call void @_ZN9Relocator15insert_space_atEiiPhP10JavaThread(ptr dead_on_unwind nonnull writable sret(%class.methodHandle) align 8 %8, ptr noundef nonnull align 8 dereferenceable(72) %7, i32 noundef %1, i32 noundef %3, ptr noundef %4, ptr noundef %10) #18
  %13 = load ptr, ptr %8, align 8
  %14 = icmp eq ptr %13, null
  br i1 %14, label %18, label %15

15:                                               ; preds = %5
  %16 = getelementptr inbounds i8, ptr %10, i64 8
  %17 = load ptr, ptr %16, align 8
  %.not = icmp eq ptr %17, null
  br i1 %.not, label %19, label %18

18:                                               ; preds = %15, %5
  call void (ptr, ptr, ...) @_ZN14GenerateOopMap12report_errorEPKcz(ptr noundef nonnull align 8 dereferenceable(176) %0, ptr noundef nonnull @.str.81)
  br label %22

19:                                               ; preds = %15
  %20 = getelementptr inbounds i8, ptr %0, i64 65
  store i8 1, ptr %20, align 1
  %21 = call noundef nonnull align 8 dereferenceable(16) ptr @_ZN12methodHandleaSERKS_(ptr noundef nonnull align 8 dereferenceable(16) %12, ptr noundef nonnull align 8 dereferenceable(16) %8) #18
  br label %22

22:                                               ; preds = %19, %18
  call void @_ZN12methodHandleD1Ev(ptr noundef nonnull align 8 dereferenceable(16) %8) #18
  %23 = getelementptr inbounds i8, ptr %7, i64 32
  call void @_ZN12methodHandleD1Ev(ptr noundef nonnull align 8 dereferenceable(16) %23) #18
  ret void
}